; ModuleID = '9/1550.c'
source_filename = "9/1550.c"
target datalayout = "e-m:e-p270:32:32-p271:32:32-p272:64:64-i64:64-f80:128-n8:16:32:64-S128"
target triple = "x86_64-pc-linux-gnu"

%struct.patient = type { [20 x i8], i32, i32 }

@.str = private unnamed_addr constant [3 x i8] c"%d\00", align 1
@.str.1 = private unnamed_addr constant [5 x i8] c"%s%d\00", align 1
@.str.2 = private unnamed_addr constant [4 x i8] c"%s\0A\00", align 1

; Function Attrs: noinline nounwind uwtable
define dso_local i32 @main() #0 {
  %1 = alloca i32, align 4
  %2 = alloca i32, align 4
  %3 = alloca i32, align 4
  %4 = alloca i32, align 4
  %5 = alloca [100 x %struct.patient], align 16
  %6 = alloca %struct.patient, align 4
  %7 = alloca %struct.patient, align 4
  %8 = alloca i32, align 4
  %9 = alloca %struct.patient, align 4
  store i32 0, i32* %1, align 4
  %10 = call i32 (i8*, ...) @__isoc99_scanf(i8* getelementptr inbounds ([3 x i8], [3 x i8]* @.str, i64 0, i64 0), i32* %2)
  store i32 1, i32* %3, align 4
  br label %11

11:                                               ; preds = %30, %0
  %12 = load i32, i32* %3, align 4
  %13 = load i32, i32* %2, align 4
  %14 = icmp sle i32 %12, %13
  br i1 %14, label %15, label %33

15:                                               ; preds = %11
  %16 = load i32, i32* %3, align 4
  %17 = sext i32 %16 to i64
  %18 = getelementptr inbounds [100 x %struct.patient], [100 x %struct.patient]* %5, i64 0, i64 %17
  %19 = getelementptr inbounds %struct.patient, %struct.patient* %18, i32 0, i32 0
  %20 = load i32, i32* %3, align 4
  %21 = sext i32 %20 to i64
  %22 = getelementptr inbounds [100 x %struct.patient], [100 x %struct.patient]* %5, i64 0, i64 %21
  %23 = getelementptr inbounds %struct.patient, %struct.patient* %22, i32 0, i32 1
  %24 = call i32 (i8*, ...) @__isoc99_scanf(i8* getelementptr inbounds ([5 x i8], [5 x i8]* @.str.1, i64 0, i64 0), [20 x i8]* %19, i32* %23)
  %25 = load i32, i32* %3, align 4
  %26 = load i32, i32* %3, align 4
  %27 = sext i32 %26 to i64
  %28 = getelementptr inbounds [100 x %struct.patient], [100 x %struct.patient]* %5, i64 0, i64 %27
  %29 = getelementptr inbounds %struct.patient, %struct.patient* %28, i32 0, i32 2
  store i32 %25, i32* %29, align 4
  br label %30

30:                                               ; preds = %15
  %31 = load i32, i32* %3, align 4
  %32 = add nsw i32 %31, 1
  store i32 %32, i32* %3, align 4
  br label %11

33:                                               ; preds = %11
  store i32 1, i32* %3, align 4
  br label %34

34:                                               ; preds = %82, %33
  %35 = load i32, i32* %3, align 4
  %36 = load i32, i32* %2, align 4
  %37 = sub nsw i32 %36, 1
  %38 = icmp sle i32 %35, %37
  br i1 %38, label %39, label %85

39:                                               ; preds = %34
  %40 = load i32, i32* %3, align 4
  %41 = add nsw i32 %40, 1
  store i32 %41, i32* %4, align 4
  br label %42

42:                                               ; preds = %78, %39
  %43 = load i32, i32* %4, align 4
  %44 = load i32, i32* %2, align 4
  %45 = icmp sle i32 %43, %44
  br i1 %45, label %46, label %81

46:                                               ; preds = %42
  %47 = load i32, i32* %4, align 4
  %48 = sext i32 %47 to i64
  %49 = getelementptr inbounds [100 x %struct.patient], [100 x %struct.patient]* %5, i64 0, i64 %48
  %50 = getelementptr inbounds %struct.patient, %struct.patient* %49, i32 0, i32 1
  %51 = load i32, i32* %50, align 4
  %52 = load i32, i32* %3, align 4
  %53 = sext i32 %52 to i64
  %54 = getelementptr inbounds [100 x %struct.patient], [100 x %struct.patient]* %5, i64 0, i64 %53
  %55 = getelementptr inbounds %struct.patient, %struct.patient* %54, i32 0, i32 1
  %56 = load i32, i32* %55, align 4
  %57 = icmp sgt i32 %51, %56
  br i1 %57, label %58, label %77

58:                                               ; preds = %46
  %59 = load i32, i32* %3, align 4
  %60 = sext i32 %59 to i64
  %61 = getelementptr inbounds [100 x %struct.patient], [100 x %struct.patient]* %5, i64 0, i64 %60
  %62 = bitcast %struct.patient* %6 to i8*
  %63 = bitcast %struct.patient* %61 to i8*
  call void @llvm.memcpy.p0i8.p0i8.i64(i8* align 4 %62, i8* align 4 %63, i64 28, i1 false)
  %64 = load i32, i32* %3, align 4
  %65 = sext i32 %64 to i64
  %66 = getelementptr inbounds [100 x %struct.patient], [100 x %struct.patient]* %5, i64 0, i64 %65
  %67 = load i32, i32* %4, align 4
  %68 = sext i32 %67 to i64
  %69 = getelementptr inbounds [100 x %struct.patient], [100 x %struct.patient]* %5, i64 0, i64 %68
  %70 = bitcast %struct.patient* %66 to i8*
  %71 = bitcast %struct.patient* %69 to i8*
  call void @llvm.memcpy.p0i8.p0i8.i64(i8* align 4 %70, i8* align 4 %71, i64 28, i1 false)
  %72 = load i32, i32* %4, align 4
  %73 = sext i32 %72 to i64
  %74 = getelementptr inbounds [100 x %struct.patient], [100 x %struct.patient]* %5, i64 0, i64 %73
  %75 = bitcast %struct.patient* %74 to i8*
  %76 = bitcast %struct.patient* %6 to i8*
  call void @llvm.memcpy.p0i8.p0i8.i64(i8* align 4 %75, i8* align 4 %76, i64 28, i1 false)
  br label %77

77:                                               ; preds = %58, %46
  br label %78

78:                                               ; preds = %77
  %79 = load i32, i32* %4, align 4
  %80 = add nsw i32 %79, 1
  store i32 %80, i32* %4, align 4
  br label %42

81:                                               ; preds = %42
  br label %82

82:                                               ; preds = %81
  %83 = load i32, i32* %3, align 4
  %84 = add nsw i32 %83, 1
  store i32 %84, i32* %3, align 4
  br label %34

85:                                               ; preds = %34
  store i32 1, i32* %3, align 4
  br label %86

86:                                               ; preds = %150, %85
  %87 = load i32, i32* %3, align 4
  %88 = sext i32 %87 to i64
  %89 = getelementptr inbounds [100 x %struct.patient], [100 x %struct.patient]* %5, i64 0, i64 %88
  %90 = getelementptr inbounds %struct.patient, %struct.patient* %89, i32 0, i32 1
  %91 = load i32, i32* %90, align 4
  %92 = icmp sge i32 %91, 60
  br i1 %92, label %93, label %153

93:                                               ; preds = %86
  %94 = load i32, i32* %3, align 4
  %95 = add nsw i32 %94, 1
  store i32 %95, i32* %4, align 4
  br label %96

96:                                               ; preds = %140, %93
  %97 = load i32, i32* %4, align 4
  %98 = sext i32 %97 to i64
  %99 = getelementptr inbounds [100 x %struct.patient], [100 x %struct.patient]* %5, i64 0, i64 %98
  %100 = getelementptr inbounds %struct.patient, %struct.patient* %99, i32 0, i32 1
  %101 = load i32, i32* %100, align 4
  %102 = load i32, i32* %3, align 4
  %103 = sext i32 %102 to i64
  %104 = getelementptr inbounds [100 x %struct.patient], [100 x %struct.patient]* %5, i64 0, i64 %103
  %105 = getelementptr inbounds %struct.patient, %struct.patient* %104, i32 0, i32 1
  %106 = load i32, i32* %105, align 4
  %107 = icmp eq i32 %101, %106
  br i1 %107, label %108, label %143

108:                                              ; preds = %96
  %109 = load i32, i32* %3, align 4
  %110 = sext i32 %109 to i64
  %111 = getelementptr inbounds [100 x %struct.patient], [100 x %struct.patient]* %5, i64 0, i64 %110
  %112 = getelementptr inbounds %struct.patient, %struct.patient* %111, i32 0, i32 2
  %113 = load i32, i32* %112, align 4
  %114 = load i32, i32* %4, align 4
  %115 = sext i32 %114 to i64
  %116 = getelementptr inbounds [100 x %struct.patient], [100 x %struct.patient]* %5, i64 0, i64 %115
  %117 = getelementptr inbounds %struct.patient, %struct.patient* %116, i32 0, i32 2
  %118 = load i32, i32* %117, align 4
  %119 = icmp sgt i32 %113, %118
  br i1 %119, label %120, label %139

120:                                              ; preds = %108
  %121 = load i32, i32* %3, align 4
  %122 = sext i32 %121 to i64
  %123 = getelementptr inbounds [100 x %struct.patient], [100 x %struct.patient]* %5, i64 0, i64 %122
  %124 = bitcast %struct.patient* %7 to i8*
  %125 = bitcast %struct.patient* %123 to i8*
  call void @llvm.memcpy.p0i8.p0i8.i64(i8* align 4 %124, i8* align 4 %125, i64 28, i1 false)
  %126 = load i32, i32* %3, align 4
  %127 = sext i32 %126 to i64
  %128 = getelementptr inbounds [100 x %struct.patient], [100 x %struct.patient]* %5, i64 0, i64 %127
  %129 = load i32, i32* %4, align 4
  %130 = sext i32 %129 to i64
  %131 = getelementptr inbounds [100 x %struct.patient], [100 x %struct.patient]* %5, i64 0, i64 %130
  %132 = bitcast %struct.patient* %128 to i8*
  %133 = bitcast %struct.patient* %131 to i8*
  call void @llvm.memcpy.p0i8.p0i8.i64(i8* align 4 %132, i8* align 4 %133, i64 28, i1 false)
  %134 = load i32, i32* %4, align 4
  %135 = sext i32 %134 to i64
  %136 = getelementptr inbounds [100 x %struct.patient], [100 x %struct.patient]* %5, i64 0, i64 %135
  %137 = bitcast %struct.patient* %136 to i8*
  %138 = bitcast %struct.patient* %7 to i8*
  call void @llvm.memcpy.p0i8.p0i8.i64(i8* align 4 %137, i8* align 4 %138, i64 28, i1 false)
  br label %139

139:                                              ; preds = %120, %108
  br label %140

140:                                              ; preds = %139
  %141 = load i32, i32* %4, align 4
  %142 = add nsw i32 %141, 1
  store i32 %142, i32* %4, align 4
  br label %96

143:                                              ; preds = %96
  %144 = load i32, i32* %3, align 4
  %145 = sext i32 %144 to i64
  %146 = getelementptr inbounds [100 x %struct.patient], [100 x %struct.patient]* %5, i64 0, i64 %145
  %147 = getelementptr inbounds %struct.patient, %struct.patient* %146, i32 0, i32 0
  %148 = getelementptr inbounds [20 x i8], [20 x i8]* %147, i64 0, i64 0
  %149 = call i32 (i8*, ...) @printf(i8* getelementptr inbounds ([4 x i8], [4 x i8]* @.str.2, i64 0, i64 0), i8* %148)
  br label %150

150:                                              ; preds = %143
  %151 = load i32, i32* %3, align 4
  %152 = add nsw i32 %151, 1
  store i32 %152, i32* %3, align 4
  br label %86

153:                                              ; preds = %86
  %154 = load i32, i32* %3, align 4
  store i32 %154, i32* %4, align 4
  br label %155

155:                                              ; preds = %208, %153
  %156 = load i32, i32* %4, align 4
  %157 = load i32, i32* %2, align 4
  %158 = icmp sle i32 %156, %157
  br i1 %158, label %159, label %211

159:                                              ; preds = %155
  %160 = load i32, i32* %4, align 4
  %161 = add nsw i32 %160, 1
  store i32 %161, i32* %8, align 4
  br label %162

162:                                              ; preds = %198, %159
  %163 = load i32, i32* %8, align 4
  %164 = load i32, i32* %2, align 4
  %165 = icmp sle i32 %163, %164
  br i1 %165, label %166, label %201

166:                                              ; preds = %162
  %167 = load i32, i32* %4, align 4
  %168 = sext i32 %167 to i64
  %169 = getelementptr inbounds [100 x %struct.patient], [100 x %struct.patient]* %5, i64 0, i64 %168
  %170 = getelementptr inbounds %struct.patient, %struct.patient* %169, i32 0, i32 2
  %171 = load i32, i32* %170, align 4
  %172 = load i32, i32* %8, align 4
  %173 = sext i32 %172 to i64
  %174 = getelementptr inbounds [100 x %struct.patient], [100 x %struct.patient]* %5, i64 0, i64 %173
  %175 = getelementptr inbounds %struct.patient, %struct.patient* %174, i32 0, i32 2
  %176 = load i32, i32* %175, align 4
  %177 = icmp sgt i32 %171, %176
  br i1 %177, label %178, label %197

178:                                              ; preds = %166
  %179 = load i32, i32* %4, align 4
  %180 = sext i32 %179 to i64
  %181 = getelementptr inbounds [100 x %struct.patient], [100 x %struct.patient]* %5, i64 0, i64 %180
  %182 = bitcast %struct.patient* %9 to i8*
  %183 = bitcast %struct.patient* %181 to i8*
  call void @llvm.memcpy.p0i8.p0i8.i64(i8* align 4 %182, i8* align 4 %183, i64 28, i1 false)
  %184 = load i32, i32* %4, align 4
  %185 = sext i32 %184 to i64
  %186 = getelementptr inbounds [100 x %struct.patient], [100 x %struct.patient]* %5, i64 0, i64 %185
  %187 = load i32, i32* %8, align 4
  %188 = sext i32 %187 to i64
  %189 = getelementptr inbounds [100 x %struct.patient], [100 x %struct.patient]* %5, i64 0, i64 %188
  %190 = bitcast %struct.patient* %186 to i8*
  %191 = bitcast %struct.patient* %189 to i8*
  call void @llvm.memcpy.p0i8.p0i8.i64(i8* align 4 %190, i8* align 4 %191, i64 28, i1 false)
  %192 = load i32, i32* %8, align 4
  %193 = sext i32 %192 to i64
  %194 = getelementptr inbounds [100 x %struct.patient], [100 x %struct.patient]* %5, i64 0, i64 %193
  %195 = bitcast %struct.patient* %194 to i8*
  %196 = bitcast %struct.patient* %9 to i8*
  call void @llvm.memcpy.p0i8.p0i8.i64(i8* align 4 %195, i8* align 4 %196, i64 28, i1 false)
  br label %197

197:                                              ; preds = %178, %166
  br label %198

198:                                              ; preds = %197
  %199 = load i32, i32* %8, align 4
  %200 = add nsw i32 %199, 1
  store i32 %200, i32* %8, align 4
  br label %162

201:                                              ; preds = %162
  %202 = load i32, i32* %4, align 4
  %203 = sext i32 %202 to i64
  %204 = getelementptr inbounds [100 x %struct.patient], [100 x %struct.patient]* %5, i64 0, i64 %203
  %205 = getelementptr inbounds %struct.patient, %struct.patient* %204, i32 0, i32 0
  %206 = getelementptr inbounds [20 x i8], [20 x i8]* %205, i64 0, i64 0
  %207 = call i32 (i8*, ...) @printf(i8* getelementptr inbounds ([4 x i8], [4 x i8]* @.str.2, i64 0, i64 0), i8* %206)
  br label %208

208:                                              ; preds = %201
  %209 = load i32, i32* %4, align 4
  %210 = add nsw i32 %209, 1
  store i32 %210, i32* %4, align 4
  br label %155

211:                                              ; preds = %155
  ret i32 0
}

declare dso_local i32 @__isoc99_scanf(i8*, ...) #1

; Function Attrs: argmemonly nounwind willreturn
declare void @llvm.memcpy.p0i8.p0i8.i64(i8* noalias nocapture writeonly, i8* noalias nocapture readonly, i64, i1 immarg) #2

declare dso_local i32 @printf(i8*, ...) #1


!llvm.module.flags = !{!0}
!llvm.ident = !{!1}

!0 = !{i32 1, !"wchar_size", i32 4}
!1 = !{!"clang version 10.0.0-4ubuntu1 "}
